; Function Attrs: mustprogress uwtable
define dso_local noundef ptr @_ZN22btGenericPoolAllocator8allocateEm(ptr nocapture noundef nonnull align 8 dereferenceable(160) %this, i64 noundef %size_bytes) local_unnamed_addr #2 align 2 {
entry:
  %m_pool_count = getelementptr inbounds i8, ptr %this, i64 152
  %0 = load i64, ptr %m_pool_count, align 8
  %cmp6.not = icmp eq i64 %0, 0
  br i1 %cmp6.not, label %if.end, label %while.body.lr.ph

while.body.lr.ph:                                 ; preds = %entry
  %m_pools = getelementptr inbounds i8, ptr %this, i64 24
  br label %while.body

while.body:                                       ; preds = %while.body.lr.ph, %while.body
  %i.07 = phi i64 [ 0, %while.body.lr.ph ], [ %inc, %while.body ]
  %arrayidx = getelementptr inbounds [16 x ptr], ptr %m_pools, i64 0, i64 %i.07
  %1 = load ptr, ptr %arrayidx, align 8
  %call = tail call noundef ptr @_ZN19btGenericMemoryPool8allocateEm(ptr noundef nonnull align 8 dereferenceable(56) %1, i64 noundef %size_bytes)
  %inc = add nuw i64 %i.07, 1
  %2 = load i64, ptr %m_pool_count, align 8
  %cmp = icmp ult i64 %inc, %2
  %cmp2 = icmp eq ptr %call, null
  %3 = and i1 %cmp2, %cmp
  br i1 %3, label %while.body, label %while.end, !llvm.loop !9

while.end:                                        ; preds = %while.body
  br i1 %cmp2, label %if.end, label %return

if.end:                                           ; preds = %entry, %while.end
  %m_pool_element_size.i.i = getelementptr inbounds i8, ptr %this, i64 8
  %4 = load i64, ptr %m_pool_element_size.i.i, align 8
  %m_pool_element_count.i.i = getelementptr inbounds i8, ptr %this, i64 16
  %5 = load i64, ptr %m_pool_element_count.i.i, align 8
  %mul.i.i = mul i64 %5, %4
  %cmp.not.i = icmp ult i64 %mul.i.i, %size_bytes
  br i1 %cmp.not.i, label %if.then4.i, label %if.end.i

if.end.i:                                         ; preds = %if.end
  %call2.i = tail call noundef ptr @_ZN22btGenericPoolAllocator13push_new_poolEv(ptr noundef nonnull align 8 dereferenceable(160) %this)
  %cmp3.i = icmp eq ptr %call2.i, null
  br i1 %cmp3.i, label %if.then4.i, label %if.end6.i

if.then4.i:                                       ; preds = %if.end.i, %if.end
  %call5.i = tail call noundef ptr @_Z22btAlignedAllocInternalmi(i64 noundef %size_bytes, i32 noundef 16)
  br label %return

if.end6.i:                                        ; preds = %if.end.i
  %call7.i = tail call noundef ptr @_ZN19btGenericMemoryPool8allocateEm(ptr noundef nonnull align 8 dereferenceable(56) %call2.i, i64 noundef %size_bytes)
  br label %return

return:                                           ; preds = %if.end6.i, %if.then4.i, %while.end
  %retval.0 = phi ptr [ %call, %while.end ], [ %call5.i, %if.then4.i ], [ %call7.i, %if.end6.i ]
  ret ptr %retval.0
}